target datalayout = "e-m:e-p270:32:32-p271:32:32-p272:64:64-i64:64-i128:128-f80:128-n8:16:32:64-S128"
target triple = "x86_64-pc-linux-gnu"

@.str.21 = private unnamed_addr constant [13 x i8] c"XCF_PROP_END\00", align 1
@.str.22 = private unnamed_addr constant [18 x i8] c"XCF_PROP_COLORMAP\00", align 1
@.str.23 = private unnamed_addr constant [17 x i8] c"XCF_PROP_OPACITY\00", align 1
@.str.24 = private unnamed_addr constant [14 x i8] c"XCF_PROP_MODE\00", align 1
@.str.25 = private unnamed_addr constant [17 x i8] c"XCF_PROP_VISIBLE\00", align 1
@.str.26 = private unnamed_addr constant [17 x i8] c"XCF_PROP_OFFSETS\00", align 1
@.str.27 = private unnamed_addr constant [15 x i8] c"XCF_PROP_COLOR\00", align 1
@.str.28 = private unnamed_addr constant [21 x i8] c"XCF_PROP_COMPRESSION\00", align 1
@.str.29 = private unnamed_addr constant [19 x i8] c"XCF_PROP_PARASITES\00", align 1
@.str.30 = private unnamed_addr constant [23 x i8] c"XCF_PROP_FLOAT_OPACITY\00", align 1
@.str.31 = private unnamed_addr constant [24 x i8] c"XCF_PROP_COMPOSITE_MODE\00", align 1
@.str.32 = private unnamed_addr constant [25 x i8] c"XCF_PROP_COMPOSITE_SPACE\00", align 1
@.str.33 = private unnamed_addr constant [21 x i8] c"XCF_PROP_BLEND_SPACE\00", align 1
@.str.34 = private unnamed_addr constant [21 x i8] c"XCF_PROP_FLOAT_COLOR\00", align 1

; Function Attrs: nounwind uwtable
define ptr @xcf_get_property_name(i32 noundef %0) #0 {
  %2 = alloca ptr, align 8
  %3 = alloca i32, align 4
  store i32 %0, ptr %3, align 4, !tbaa !3
  %4 = load i32, ptr %3, align 4, !tbaa !3
  switch i32 %4, label %19 [
    i32 0, label %5
    i32 1, label %6
    i32 6, label %7
    i32 7, label %8
    i32 8, label %9
    i32 15, label %10
    i32 16, label %11
    i32 17, label %12
    i32 21, label %13
    i32 33, label %14
    i32 35, label %15
    i32 36, label %16
    i32 37, label %17
    i32 38, label %18
  ]

5:                                                ; preds = %1
  store ptr @.str.21, ptr %2, align 8
  br label %20

6:                                                ; preds = %1
  store ptr @.str.22, ptr %2, align 8
  br label %20

7:                                                ; preds = %1
  store ptr @.str.23, ptr %2, align 8
  br label %20

8:                                                ; preds = %1
  store ptr @.str.24, ptr %2, align 8
  br label %20

9:                                                ; preds = %1
  store ptr @.str.25, ptr %2, align 8
  br label %20

10:                                               ; preds = %1
  store ptr @.str.26, ptr %2, align 8
  br label %20

11:                                               ; preds = %1
  store ptr @.str.27, ptr %2, align 8
  br label %20

12:                                               ; preds = %1
  store ptr @.str.28, ptr %2, align 8
  br label %20

13:                                               ; preds = %1
  store ptr @.str.29, ptr %2, align 8
  br label %20

14:                                               ; preds = %1
  store ptr @.str.30, ptr %2, align 8
  br label %20

15:                                               ; preds = %1
  store ptr @.str.31, ptr %2, align 8
  br label %20

16:                                               ; preds = %1
  store ptr @.str.32, ptr %2, align 8
  br label %20

17:                                               ; preds = %1
  store ptr @.str.33, ptr %2, align 8
  br label %20

18:                                               ; preds = %1
  store ptr @.str.34, ptr %2, align 8
  br label %20

19:                                               ; preds = %1
  store ptr null, ptr %2, align 8
  br label %20

20:                                               ; preds = %19, %18, %17, %16, %15, %14, %13, %12, %11, %10, %9, %8, %7, %6, %5
  %21 = load ptr, ptr %2, align 8
  ret ptr %21
}