; Function Attrs: mustprogress nofree norecurse nosync nounwind willreturn memory(none) uwtable
define noundef ptr @xcf_get_property_name(i32 noundef %0) local_unnamed_addr #0 {
  switch i32 %0, label %15 [
    i32 0, label %16
    i32 1, label %2
    i32 6, label %3
    i32 7, label %4
    i32 8, label %5
    i32 15, label %6
    i32 16, label %7
    i32 17, label %8
    i32 21, label %9
    i32 33, label %10
    i32 35, label %11
    i32 36, label %12
    i32 37, label %13
    i32 38, label %14
  ]

2:                                                ; preds = %1
  br label %16

3:                                                ; preds = %1
  br label %16

4:                                                ; preds = %1
  br label %16

5:                                                ; preds = %1
  br label %16

6:                                                ; preds = %1
  br label %16

7:                                                ; preds = %1
  br label %16

8:                                                ; preds = %1
  br label %16

9:                                                ; preds = %1
  br label %16

10:                                               ; preds = %1
  br label %16

11:                                               ; preds = %1
  br label %16

12:                                               ; preds = %1
  br label %16

13:                                               ; preds = %1
  br label %16

14:                                               ; preds = %1
  br label %16

15:                                               ; preds = %1
  br label %16

16:                                               ; preds = %1, %15, %14, %13, %12, %11, %10, %9, %8, %7, %6, %5, %4, %3, %2
  %.0 = phi ptr [ null, %15 ], [ @.str.34, %14 ], [ @.str.33, %13 ], [ @.str.32, %12 ], [ @.str.31, %11 ], [ @.str.30, %10 ], [ @.str.29, %9 ], [ @.str.28, %8 ], [ @.str.27, %7 ], [ @.str.26, %6 ], [ @.str.25, %5 ], [ @.str.24, %4 ], [ @.str.23, %3 ], [ @.str.22, %2 ], [ @.str.21, %1 ]
  ret ptr %.0
}